; ModuleID = '14/295.c'
source_filename = "14/295.c"
target datalayout = "e-m:e-p270:32:32-p271:32:32-p272:64:64-i64:64-f80:128-n8:16:32:64-S128"
target triple = "x86_64-pc-linux-gnu"

%struct.data = type { i32, i32, i32, i32 }

@.str = private unnamed_addr constant [3 x i8] c"%d\00", align 1
@.str.1 = private unnamed_addr constant [9 x i8] c"%d %d %d\00", align 1
@.str.2 = private unnamed_addr constant [7 x i8] c"%d %d\0A\00", align 1

; Function Attrs: noinline nounwind uwtable
define dso_local i32 @cmp(i8* %0, i8* %1) #0 {
  %3 = alloca i8*, align 8
  %4 = alloca i8*, align 8
  store i8* %0, i8** %3, align 8
  store i8* %1, i8** %4, align 8
  %5 = load i8*, i8** %4, align 8
  %6 = bitcast i8* %5 to %struct.data*
  %7 = getelementptr inbounds %struct.data, %struct.data* %6, i32 0, i32 3
  %8 = load i32, i32* %7, align 4
  %9 = load i8*, i8** %3, align 8
  %10 = bitcast i8* %9 to %struct.data*
  %11 = getelementptr inbounds %struct.data, %struct.data* %10, i32 0, i32 3
  %12 = load i32, i32* %11, align 4
  %13 = sub nsw i32 %8, %12
  ret i32 %13
}

; Function Attrs: noinline nounwind uwtable
define dso_local i32 @main() #0 {
  %1 = alloca i32, align 4
  %2 = alloca %struct.data*, align 8
  %3 = alloca i32, align 4
  %4 = alloca i32, align 4
  store i32 0, i32* %1, align 4
  %5 = call i32 (i8*, ...) @__isoc99_scanf(i8* getelementptr inbounds ([3 x i8], [3 x i8]* @.str, i64 0, i64 0), i32* %3)
  %6 = load i32, i32* %3, align 4
  %7 = sext i32 %6 to i64
  %8 = mul i64 %7, 16
  %9 = call noalias i8* @malloc(i64 %8) #3
  %10 = bitcast i8* %9 to %struct.data*
  store %struct.data* %10, %struct.data** %2, align 8
  store i32 0, i32* %4, align 4
  br label %11

11:                                               ; preds = %50, %0
  %12 = load i32, i32* %4, align 4
  %13 = load i32, i32* %3, align 4
  %14 = icmp slt i32 %12, %13
  br i1 %14, label %15, label %53

15:                                               ; preds = %11
  %16 = load %struct.data*, %struct.data** %2, align 8
  %17 = load i32, i32* %4, align 4
  %18 = sext i32 %17 to i64
  %19 = getelementptr inbounds %struct.data, %struct.data* %16, i64 %18
  %20 = getelementptr inbounds %struct.data, %struct.data* %19, i32 0, i32 0
  %21 = load %struct.data*, %struct.data** %2, align 8
  %22 = load i32, i32* %4, align 4
  %23 = sext i32 %22 to i64
  %24 = getelementptr inbounds %struct.data, %struct.data* %21, i64 %23
  %25 = getelementptr inbounds %struct.data, %struct.data* %24, i32 0, i32 1
  %26 = load %struct.data*, %struct.data** %2, align 8
  %27 = load i32, i32* %4, align 4
  %28 = sext i32 %27 to i64
  %29 = getelementptr inbounds %struct.data, %struct.data* %26, i64 %28
  %30 = getelementptr inbounds %struct.data, %struct.data* %29, i32 0, i32 2
  %31 = call i32 (i8*, ...) @__isoc99_scanf(i8* getelementptr inbounds ([9 x i8], [9 x i8]* @.str.1, i64 0, i64 0), i32* %20, i32* %25, i32* %30)
  %32 = load %struct.data*, %struct.data** %2, align 8
  %33 = load i32, i32* %4, align 4
  %34 = sext i32 %33 to i64
  %35 = getelementptr inbounds %struct.data, %struct.data* %32, i64 %34
  %36 = getelementptr inbounds %struct.data, %struct.data* %35, i32 0, i32 1
  %37 = load i32, i32* %36, align 4
  %38 = load %struct.data*, %struct.data** %2, align 8
  %39 = load i32, i32* %4, align 4
  %40 = sext i32 %39 to i64
  %41 = getelementptr inbounds %struct.data, %struct.data* %38, i64 %40
  %42 = getelementptr inbounds %struct.data, %struct.data* %41, i32 0, i32 2
  %43 = load i32, i32* %42, align 4
  %44 = add nsw i32 %37, %43
  %45 = load %struct.data*, %struct.data** %2, align 8
  %46 = load i32, i32* %4, align 4
  %47 = sext i32 %46 to i64
  %48 = getelementptr inbounds %struct.data, %struct.data* %45, i64 %47
  %49 = getelementptr inbounds %struct.data, %struct.data* %48, i32 0, i32 3
  store i32 %44, i32* %49, align 4
  br label %50

50:                                               ; preds = %15
  %51 = load i32, i32* %4, align 4
  %52 = add nsw i32 %51, 1
  store i32 %52, i32* %4, align 4
  br label %11

53:                                               ; preds = %11
  %54 = load %struct.data*, %struct.data** %2, align 8
  %55 = bitcast %struct.data* %54 to i8*
  %56 = load i32, i32* %3, align 4
  %57 = sext i32 %56 to i64
  call void @qsort(i8* %55, i64 %57, i64 16, i32 (i8*, i8*)* @cmp)
  store i32 0, i32* %4, align 4
  br label %58

58:                                               ; preds = %75, %53
  %59 = load i32, i32* %4, align 4
  %60 = icmp slt i32 %59, 3
  br i1 %60, label %61, label %78

61:                                               ; preds = %58
  %62 = load %struct.data*, %struct.data** %2, align 8
  %63 = load i32, i32* %4, align 4
  %64 = sext i32 %63 to i64
  %65 = getelementptr inbounds %struct.data, %struct.data* %62, i64 %64
  %66 = getelementptr inbounds %struct.data, %struct.data* %65, i32 0, i32 0
  %67 = load i32, i32* %66, align 4
  %68 = load %struct.data*, %struct.data** %2, align 8
  %69 = load i32, i32* %4, align 4
  %70 = sext i32 %69 to i64
  %71 = getelementptr inbounds %struct.data, %struct.data* %68, i64 %70
  %72 = getelementptr inbounds %struct.data, %struct.data* %71, i32 0, i32 3
  %73 = load i32, i32* %72, align 4
  %74 = call i32 (i8*, ...) @printf(i8* getelementptr inbounds ([7 x i8], [7 x i8]* @.str.2, i64 0, i64 0), i32 %67, i32 %73)
  br label %75

75:                                               ; preds = %61
  %76 = load i32, i32* %4, align 4
  %77 = add nsw i32 %76, 1
  store i32 %77, i32* %4, align 4
  br label %58

78:                                               ; preds = %58
  %79 = load %struct.data*, %struct.data** %2, align 8
  %80 = bitcast %struct.data* %79 to i8*
  call void @free(i8* %80) #3
  %81 = load i32, i32* %1, align 4
  ret i32 %81
}

declare dso_local i32 @__isoc99_scanf(i8*, ...) #1

; Function Attrs: nounwind
declare dso_local noalias i8* @malloc(i64) #2

declare dso_local void @qsort(i8*, i64, i64, i32 (i8*, i8*)*) #1

declare dso_local i32 @printf(i8*, ...) #1

; Function Attrs: nounwind
declare dso_local void @free(i8*) #2


!llvm.module.flags = !{!0}
!llvm.ident = !{!1}

!0 = !{i32 1, !"wchar_size", i32 4}
!1 = !{!"clang version 10.0.0-4ubuntu1 "}
