; ModuleID = 'source-C-CXX/13/295.c'
source_filename = "source-C-CXX/13/295.c"
target datalayout = "e-m:e-p270:32:32-p271:32:32-p272:64:64-i64:64-f80:128-n8:16:32:64-S128"
target triple = "x86_64-pc-linux-gnu"

%struct.data = type { i32, i32, i32, i32 }

@.str = private unnamed_addr constant [3 x i8] c"%d\00", align 1
@.str.1 = private unnamed_addr constant [9 x i8] c"%d %d %d\00", align 1
@.str.2 = private unnamed_addr constant [7 x i8] c"%d %d\0A\00", align 1

; Function Attrs: mustprogress nofree norecurse nosync nounwind readonly sspstrong uwtable willreturn
define dso_local i32 @cmp(i8* nocapture readonly %0, i8* nocapture readonly %1) #0 {
  %3 = getelementptr inbounds i8, i8* %1, i64 12
  %4 = bitcast i8* %3 to i32*
  %5 = load i32, i32* %4, align 4, !tbaa !5
  %6 = getelementptr inbounds i8, i8* %0, i64 12
  %7 = bitcast i8* %6 to i32*
  %8 = load i32, i32* %7, align 4, !tbaa !5
  %9 = sub nsw i32 %5, %8
  ret i32 %9
}

; Function Attrs: nounwind sspstrong uwtable
define dso_local i32 @main() local_unnamed_addr #1 {
  %1 = alloca i32, align 4
  %2 = bitcast i32* %1 to i8*
  call void @llvm.lifetime.start.p0i8(i64 4, i8* nonnull %2) #7
  %3 = call i32 (i8*, ...) @__isoc99_scanf(i8* getelementptr inbounds ([3 x i8], [3 x i8]* @.str, i64 0, i64 0), i32* nonnull %1)
  %4 = load i32, i32* %1, align 4, !tbaa !10
  %5 = sext i32 %4 to i64
  %6 = shl nsw i64 %5, 4
  %7 = call noalias align 16 i8* @malloc(i64 %6) #7
  %8 = bitcast i8* %7 to %struct.data*
  %9 = icmp sgt i32 %4, 0
  br i1 %9, label %10, label %26

10:                                               ; preds = %0, %10
  %11 = phi i64 [ %20, %10 ], [ 0, %0 ]
  %12 = getelementptr inbounds %struct.data, %struct.data* %8, i64 %11, i32 0
  %13 = getelementptr inbounds %struct.data, %struct.data* %8, i64 %11, i32 1
  %14 = getelementptr inbounds %struct.data, %struct.data* %8, i64 %11, i32 2
  %15 = call i32 (i8*, ...) @__isoc99_scanf(i8* getelementptr inbounds ([9 x i8], [9 x i8]* @.str.1, i64 0, i64 0), i32* %12, i32* nonnull %13, i32* nonnull %14)
  %16 = load i32, i32* %13, align 4, !tbaa !11
  %17 = load i32, i32* %14, align 8, !tbaa !12
  %18 = add nsw i32 %17, %16
  %19 = getelementptr inbounds %struct.data, %struct.data* %8, i64 %11, i32 3
  store i32 %18, i32* %19, align 4, !tbaa !5
  %20 = add nuw nsw i64 %11, 1
  %21 = load i32, i32* %1, align 4, !tbaa !10
  %22 = sext i32 %21 to i64
  %23 = icmp slt i64 %20, %22
  br i1 %23, label %10, label %24, !llvm.loop !13

24:                                               ; preds = %10
  %25 = sext i32 %21 to i64
  br label %26

26:                                               ; preds = %24, %0
  %27 = phi i64 [ %5, %0 ], [ %25, %24 ]
  call void @qsort(i8* %7, i64 %27, i64 16, i32 (i8*, i8*)* nonnull @cmp) #7
  %28 = getelementptr inbounds %struct.data, %struct.data* %8, i64 0, i32 0
  %29 = load i32, i32* %28, align 16, !tbaa !15
  %30 = getelementptr inbounds %struct.data, %struct.data* %8, i64 0, i32 3
  %31 = load i32, i32* %30, align 4, !tbaa !5
  %32 = call i32 (i8*, ...) @printf(i8* nonnull dereferenceable(1) getelementptr inbounds ([7 x i8], [7 x i8]* @.str.2, i64 0, i64 0), i32 %29, i32 %31)
  %33 = getelementptr inbounds %struct.data, %struct.data* %8, i64 1, i32 0
  %34 = load i32, i32* %33, align 16, !tbaa !15
  %35 = getelementptr inbounds %struct.data, %struct.data* %8, i64 1, i32 3
  %36 = load i32, i32* %35, align 4, !tbaa !5
  %37 = call i32 (i8*, ...) @printf(i8* nonnull dereferenceable(1) getelementptr inbounds ([7 x i8], [7 x i8]* @.str.2, i64 0, i64 0), i32 %34, i32 %36)
  %38 = getelementptr inbounds %struct.data, %struct.data* %8, i64 2, i32 0
  %39 = load i32, i32* %38, align 16, !tbaa !15
  %40 = getelementptr inbounds %struct.data, %struct.data* %8, i64 2, i32 3
  %41 = load i32, i32* %40, align 4, !tbaa !5
  %42 = call i32 (i8*, ...) @printf(i8* nonnull dereferenceable(1) getelementptr inbounds ([7 x i8], [7 x i8]* @.str.2, i64 0, i64 0), i32 %39, i32 %41)
  call void @free(i8* %7) #7
  call void @llvm.lifetime.end.p0i8(i64 4, i8* nonnull %2) #7
  ret i32 0
}

; Function Attrs: argmemonly mustprogress nofree nosync nounwind willreturn
declare void @llvm.lifetime.start.p0i8(i64 immarg, i8* nocapture) #2

; Function Attrs: nofree nounwind
declare noundef i32 @__isoc99_scanf(i8* nocapture noundef readonly, ...) local_unnamed_addr #3

; Function Attrs: inaccessiblememonly mustprogress nofree nounwind willreturn
declare noalias noundef align 16 i8* @malloc(i64 noundef) local_unnamed_addr #4

; Function Attrs: nofree
declare void @qsort(i8* noundef, i64 noundef, i64 noundef, i32 (i8*, i8*)* nocapture noundef) local_unnamed_addr #5

; Function Attrs: nofree nounwind
declare noundef i32 @printf(i8* nocapture noundef readonly, ...) local_unnamed_addr #3

; Function Attrs: inaccessiblemem_or_argmemonly mustprogress nounwind willreturn
declare void @free(i8* nocapture noundef) local_unnamed_addr #6

; Function Attrs: argmemonly mustprogress nofree nosync nounwind willreturn
declare void @llvm.lifetime.end.p0i8(i64 immarg, i8* nocapture) #2


!llvm.module.flags = !{!0, !1, !2, !3}
!llvm.ident = !{!4}

!0 = !{i32 1, !"wchar_size", i32 4}
!1 = !{i32 7, !"PIC Level", i32 2}
!2 = !{i32 7, !"PIE Level", i32 2}
!3 = !{i32 7, !"uwtable", i32 1}
!4 = !{!"clang version 13.0.0"}
!5 = !{!6, !7, i64 12}
!6 = !{!"data", !7, i64 0, !7, i64 4, !7, i64 8, !7, i64 12}
!7 = !{!"int", !8, i64 0}
!8 = !{!"omnipotent char", !9, i64 0}
!9 = !{!"Simple C/C++ TBAA"}
!10 = !{!7, !7, i64 0}
!11 = !{!6, !7, i64 4}
!12 = !{!6, !7, i64 8}
!13 = distinct !{!13, !14}
!14 = !{!"llvm.loop.mustprogress"}
!15 = !{!6, !7, i64 0}
